; Function Attrs: mustprogress uwtable
define noalias noundef nonnull ptr @ggml_backend_cpu_buffer_from_ptr(ptr noundef %0, i64 noundef %1) local_unnamed_addr #0 {
  %3 = ptrtoint ptr %0 to i64
  %4 = and i64 %3, 31
  %5 = icmp eq i64 %4, 0
  br i1 %5, label %7, label %6

6:                                                ; preds = %2
  tail call void (ptr, i32, ptr, ...) @ggml_abort(ptr noundef nonnull @.str, i32 noundef 2000, ptr noundef nonnull @.str.1, ptr noundef nonnull @.str.38) #24
  unreachable

7:                                                ; preds = %2
  %8 = tail call noalias noundef nonnull dereferenceable(104) ptr @_Znwm(i64 noundef 104) #22
  tail call void @llvm.memcpy.p0.p0.i64(ptr noundef nonnull align 16 dereferenceable(72) %8, ptr noundef nonnull readonly align 8 dereferenceable(72) @_ZL34ggml_backend_cpu_buffer_from_ptr_i, i64 72, i1 false), !tbaa.struct !17
  %9 = getelementptr inbounds nuw i8, ptr %8, i64 72
  store ptr @_ZZL37ggml_backend_cpu_buffer_from_ptr_typevE28ggml_backend_cpu_buffer_type, ptr %9, align 8, !tbaa !10
  %10 = getelementptr inbounds nuw i8, ptr %8, i64 80
  store ptr %0, ptr %10, align 16, !tbaa !19
  %11 = getelementptr inbounds nuw i8, ptr %8, i64 88
  store i64 %1, ptr %11, align 8, !tbaa !20
  %12 = getelementptr inbounds nuw i8, ptr %8, i64 96
  store i32 0, ptr %12, align 16, !tbaa !21
  ret ptr %8
}